; Function Attrs: nounwind uwtable
define internal void @_auto_levels_callback(ptr readnone captures(none) %0, ptr noundef %1) #1 {
  %3 = load ptr, ptr getelementptr inbounds nuw (i8, ptr @darktable, i64 104), align 8, !tbaa !155
  %4 = getelementptr inbounds nuw i8, ptr %3, i64 96
  %5 = load i32, ptr %4, align 8, !tbaa !156
  %.not = icmp eq i32 %5, 0
  br i1 %.not, label %6, label %35

6:                                                ; preds = %2
  %7 = getelementptr inbounds nuw i8, ptr %1, i64 704
  %8 = load ptr, ptr %7, align 16, !tbaa !6
  tail call void @dt_iop_request_focus(ptr noundef %1) #21
  %9 = getelementptr inbounds nuw i8, ptr %1, i64 824
  %10 = load ptr, ptr %9, align 8, !tbaa !201
  %.not15 = icmp eq ptr %10, null
  br i1 %.not15, label %15, label %11

11:                                               ; preds = %6
  %12 = tail call i64 @gtk_toggle_button_get_type() #23
  %13 = tail call ptr @g_type_check_instance_cast(ptr noundef nonnull %10, i64 noundef %12) #21
  tail call void @gtk_toggle_button_set_active(ptr noundef %13, i32 noundef 1) #21
  %14 = load ptr, ptr getelementptr inbounds nuw (i8, ptr @darktable, i64 64), align 8, !tbaa !42
  tail call void @dt_dev_add_history_item(ptr noundef %14, ptr noundef nonnull %1, i32 noundef 1) #21
  br label %15

15:                                               ; preds = %11, %6
  %.val.i = load ptr, ptr %7, align 16, !tbaa !6
  %.not.i.i = icmp eq ptr %.val.i, null
  br i1 %.not.i.i, label %_turn_selregion_picker_off.exit, label %16

16:                                               ; preds = %15
  %17 = getelementptr inbounds nuw i8, ptr %.val.i, i64 100
  store i32 0, ptr %17, align 4, !tbaa !27
  %18 = getelementptr inbounds nuw i8, ptr %.val.i, i64 136
  store i32 0, ptr %18, align 8, !tbaa !34
  %19 = getelementptr inbounds nuw i8, ptr %.val.i, i64 88
  %20 = load ptr, ptr %19, align 8, !tbaa !113
  %21 = tail call i64 @gtk_toggle_button_get_type() #23
  %22 = tail call ptr @g_type_check_instance_cast(ptr noundef %20, i64 noundef %21) #21
  %23 = load i32, ptr %17, align 4, !tbaa !27
  tail call void @gtk_toggle_button_set_active(ptr noundef %22, i32 noundef %23) #21
  br label %_turn_selregion_picker_off.exit

_turn_selregion_picker_off.exit:                  ; preds = %15, %16
  tail call void @dt_iop_color_picker_reset(ptr noundef nonnull %1, i32 noundef 1) #21
  %24 = getelementptr inbounds nuw i8, ptr %1, i64 712
  %25 = tail call i32 @pthread_mutex_lock(ptr noundef nonnull %24) #21
  %26 = getelementptr inbounds nuw i8, ptr %8, i64 96
  %27 = load i32, ptr %26, align 8, !tbaa !112
  %28 = icmp eq i32 %27, 0
  br i1 %28, label %29, label %31

29:                                               ; preds = %_turn_selregion_picker_off.exit
  %30 = getelementptr inbounds nuw i8, ptr %8, i64 120
  tail call void @llvm.memset.p0.i64(ptr noundef nonnull align 8 dereferenceable(16) %30, i8 0, i64 16, i1 false)
  store i32 1, ptr %26, align 8, !tbaa !112
  br label %31

31:                                               ; preds = %29, %_turn_selregion_picker_off.exit
  %32 = tail call i32 @pthread_mutex_unlock(ptr noundef nonnull %24) #21
  %33 = getelementptr inbounds nuw i8, ptr %1, i64 664
  %34 = load ptr, ptr %33, align 8, !tbaa !36
  tail call void @dt_dev_reprocess_all(ptr noundef %34) #21
  br label %35

35:                                               ; preds = %2, %31
  ret void
}